; Function Attrs: nounwind uwtable
define range(i32 0, 2) i32 @dt_datetime_gtimespan_to_exif(ptr noundef %0, i64 noundef %1, i64 noundef %2) local_unnamed_addr #0 {
  %4 = icmp ne ptr %0, null
  %5 = icmp ne i64 %1, 0
  %or.cond = and i1 %4, %5
  br i1 %or.cond, label %6, label %22

6:                                                ; preds = %3
  store i8 0, ptr %0, align 1, !tbaa !57
  %.not = icmp eq i64 %2, 0
  br i1 %.not, label %22, label %7

7:                                                ; preds = %6
  %8 = load ptr, ptr getelementptr inbounds nuw (i8, ptr @darktable, i64 3336), align 8, !tbaa !48
  %9 = tail call ptr @g_date_time_add(ptr noundef %8, i64 noundef %2) #7
  %.not16 = icmp eq ptr %9, null
  br i1 %.not16, label %22, label %10

10:                                               ; preds = %7
  store i8 0, ptr %0, align 1, !tbaa !57
  %11 = tail call noalias ptr @g_date_time_format(ptr noundef nonnull %9, ptr noundef nonnull @.str.3) #7
  %.not.i = icmp eq ptr %11, null
  br i1 %.not.i, label %dt_datetime_gdatetime_to_exif.exit, label %12

12:                                               ; preds = %10
  %13 = icmp eq i64 %1, 24
  br i1 %13, label %14, label %20

14:                                               ; preds = %12
  %15 = tail call i32 @g_date_time_get_microsecond(ptr noundef nonnull %9) #7
  %16 = sitofp i32 %15 to double
  %17 = fmul reassoc nsz arcp contract afn double %16, 1.000000e-03
  %18 = fptosi double %17 to i32
  %19 = tail call noalias ptr (ptr, ...) @g_strdup_printf(ptr noundef nonnull @.str.6, ptr noundef nonnull %11, ptr noundef nonnull @.str.7, i32 noundef %18) #7
  tail call void @g_free(ptr noundef nonnull %11) #7
  br label %20

20:                                               ; preds = %14, %12
  %.018.i = phi ptr [ %19, %14 ], [ %11, %12 ]
  %21 = tail call i64 @g_strlcpy(ptr noundef nonnull %0, ptr noundef %.018.i, i64 noundef %1) #7
  tail call void @g_free(ptr noundef %.018.i) #7
  br label %dt_datetime_gdatetime_to_exif.exit

dt_datetime_gdatetime_to_exif.exit:               ; preds = %10, %20
  %.0.i = phi i32 [ 1, %20 ], [ 0, %10 ]
  tail call void @g_date_time_unref(ptr noundef nonnull %9) #7
  br label %22

22:                                               ; preds = %dt_datetime_gdatetime_to_exif.exit, %7, %6, %3
  %.0 = phi i32 [ 0, %3 ], [ 0, %6 ], [ %.0.i, %dt_datetime_gdatetime_to_exif.exit ], [ 0, %7 ]
  ret i32 %.0
}